target datalayout = "e-m:e-p270:32:32-p271:32:32-p272:64:64-i64:64-i128:128-f80:128-n8:16:32:64-S128"
target triple = "x86_64-pc-linux-gnu"

@hf_awdl_datastate_flags = internal global i32 0, align 4
@hf_awdl_datastate_countrycode = internal global i32 0, align 4
@hf_awdl_datastate_social_channel = internal global i32 0, align 4
@hf_awdl_datastate_social_channel_map = internal global i32 0, align 4
@hf_awdl_datastate_infra_bssid = internal global i32 0, align 4
@hf_awdl_datastate_infra_channel = internal global i32 0, align 4
@hf_awdl_datastate_infra_address = internal global i32 0, align 4
@hf_awdl_datastate_awdl_address = internal global i32 0, align 4
@hf_awdl_datastate_umi = internal global i32 0, align 4
@hf_awdl_datastate_umioptions = internal global i32 0, align 4
@hf_awdl_datastate_umioptions_length = internal global i32 0, align 4
@hf_awdl_datastate_extflags = internal global i32 0, align 4
@hf_awdl_datastate_logtrigger = internal global i32 0, align 4
@hf_awdl_datastate_rlfc = internal global i32 0, align 4
@hf_awdl_datastate_active_time = internal global i32 0, align 4
@hf_awdl_datastate_aw_sequence_counter = internal global i32 0, align 4
@hf_awdl_datastate_update_counter = internal global i32 0, align 4
@ett_awdl_datastate_flags = internal global i32 0, align 4
@ett_awdl_datastate_social_channel_map = internal global i32 0, align 4
@ett_awdl_datastate_extflags = internal global i32 0, align 4
@awdl_tag_datapath_state.channel_map_fields = internal constant [5 x ptr] [ptr @hf_awdl_datastate_social_channel_map_6, ptr @hf_awdl_datastate_social_channel_map_44, ptr @hf_awdl_datastate_social_channel_map_149, ptr @hf_awdl_datastate_social_channel_map_unused, ptr null], align 16

; Function Attrs: null_pointer_is_valid sspstrong uwtable
define internal i32 @awdl_tag_datapath_state(ptr noundef %0, ptr noundef %1, ptr noundef %2, ptr noundef %3) #0 {
  %5 = alloca ptr, align 8
  %6 = alloca ptr, align 8
  %7 = alloca ptr, align 8
  %8 = alloca ptr, align 8
  %9 = alloca i32, align 4
  %10 = alloca i16, align 2
  %11 = alloca i16, align 2
  %12 = alloca i16, align 2
  %13 = alloca i16, align 2
  store ptr %0, ptr %5, align 8
  store ptr %1, ptr %6, align 8
  store ptr %2, ptr %7, align 8
  store ptr %3, ptr %8, align 8
  call void @llvm.lifetime.start.p0(i64 4, ptr %9) #6
  store i32 0, ptr %9, align 4
  call void @llvm.lifetime.start.p0(i64 2, ptr %10) #6
  %14 = load ptr, ptr %5, align 8
  %15 = load i32, ptr %9, align 4
  %16 = call zeroext i16 @tvb_get_uint16(ptr noundef %14, i32 noundef %15, i32 noundef -2147483648)
  store i16 %16, ptr %10, align 2
  %17 = load ptr, ptr %7, align 8
  %18 = load ptr, ptr %5, align 8
  %19 = load i32, ptr %9, align 4
  %20 = load i32, ptr @hf_awdl_datastate_flags, align 4
  %21 = load i32, ptr @ett_awdl_datastate_flags, align 4
  %22 = call ptr @proto_tree_add_bitmask(ptr noundef %17, ptr noundef %18, i32 noundef %19, i32 noundef %20, i32 noundef %21, ptr noundef @awdl_tag_datapath_state.flags_fields, i32 noundef -2147483648)
  %23 = load i32, ptr %9, align 4
  %24 = add i32 %23, 2
  store i32 %24, ptr %9, align 4
  %25 = load i16, ptr %10, align 2
  %26 = zext i16 %25 to i32
  %27 = and i32 %26, 256
  %28 = icmp ne i32 %27, 0
  br i1 %28, label %29, label %37

29:                                               ; preds = %4
  %30 = load ptr, ptr %7, align 8
  %31 = load i32, ptr @hf_awdl_datastate_countrycode, align 4
  %32 = load ptr, ptr %5, align 8
  %33 = load i32, ptr %9, align 4
  %34 = call ptr @proto_tree_add_item(ptr noundef %30, i32 noundef %31, ptr noundef %32, i32 noundef %33, i32 noundef 3, i32 noundef 0)
  %35 = load i32, ptr %9, align 4
  %36 = add i32 %35, 3
  store i32 %36, ptr %9, align 4
  br label %37

37:                                               ; preds = %29, %4
  %38 = load i16, ptr %10, align 2
  %39 = zext i16 %38 to i32
  %40 = and i32 %39, 512
  %41 = icmp ne i32 %40, 0
  br i1 %41, label %42, label %66

42:                                               ; preds = %37
  call void @llvm.lifetime.start.p0(i64 2, ptr %11) #6
  %43 = load ptr, ptr %5, align 8
  %44 = load i32, ptr %9, align 4
  %45 = call zeroext i16 @tvb_get_uint16(ptr noundef %43, i32 noundef %44, i32 noundef -2147483648)
  store i16 %45, ptr %11, align 2
  %46 = load i16, ptr %11, align 2
  %47 = zext i16 %46 to i32
  %48 = and i32 %47, 1
  %49 = icmp ne i32 %48, 0
  br i1 %49, label %50, label %57

50:                                               ; preds = %42
  %51 = load ptr, ptr %7, align 8
  %52 = load ptr, ptr %5, align 8
  %53 = load i32, ptr %9, align 4
  %54 = load i32, ptr @hf_awdl_datastate_social_channel_map, align 4
  %55 = load i32, ptr @ett_awdl_datastate_social_channel_map, align 4
  %56 = call ptr @proto_tree_add_bitmask(ptr noundef %51, ptr noundef %52, i32 noundef %53, i32 noundef %54, i32 noundef %55, ptr noundef @awdl_tag_datapath_state.channel_map_fields, i32 noundef -2147483648)
  br label %63

57:                                               ; preds = %42
  %58 = load ptr, ptr %7, align 8
  %59 = load i32, ptr @hf_awdl_datastate_social_channel, align 4
  %60 = load ptr, ptr %5, align 8
  %61 = load i32, ptr %9, align 4
  %62 = call ptr @proto_tree_add_item(ptr noundef %58, i32 noundef %59, ptr noundef %60, i32 noundef %61, i32 noundef 2, i32 noundef -2147483648)
  br label %63

63:                                               ; preds = %57, %50
  %64 = load i32, ptr %9, align 4
  %65 = add i32 %64, 2
  store i32 %65, ptr %9, align 4
  call void @llvm.lifetime.end.p0(i64 2, ptr %11) #6
  br label %66

66:                                               ; preds = %63, %37
  %67 = load i16, ptr %10, align 2
  %68 = zext i16 %67 to i32
  %69 = and i32 %68, 1
  %70 = icmp ne i32 %69, 0
  br i1 %70, label %71, label %85

71:                                               ; preds = %66
  %72 = load ptr, ptr %7, align 8
  %73 = load i32, ptr @hf_awdl_datastate_infra_bssid, align 4
  %74 = load ptr, ptr %5, align 8
  %75 = load i32, ptr %9, align 4
  %76 = call ptr @proto_tree_add_item(ptr noundef %72, i32 noundef %73, ptr noundef %74, i32 noundef %75, i32 noundef 6, i32 noundef 0)
  %77 = load ptr, ptr %7, align 8
  %78 = load i32, ptr @hf_awdl_datastate_infra_channel, align 4
  %79 = load ptr, ptr %5, align 8
  %80 = load i32, ptr %9, align 4
  %81 = add i32 %80, 6
  %82 = call ptr @proto_tree_add_item(ptr noundef %77, i32 noundef %78, ptr noundef %79, i32 noundef %81, i32 noundef 2, i32 noundef -2147483648)
  %83 = load i32, ptr %9, align 4
  %84 = add i32 %83, 8
  store i32 %84, ptr %9, align 4
  br label %85

85:                                               ; preds = %71, %66
  %86 = load i16, ptr %10, align 2
  %87 = zext i16 %86 to i32
  %88 = and i32 %87, 2
  %89 = icmp ne i32 %88, 0
  br i1 %89, label %90, label %98

90:                                               ; preds = %85
  %91 = load ptr, ptr %7, align 8
  %92 = load i32, ptr @hf_awdl_datastate_infra_address, align 4
  %93 = load ptr, ptr %5, align 8
  %94 = load i32, ptr %9, align 4
  %95 = call ptr @proto_tree_add_item(ptr noundef %91, i32 noundef %92, ptr noundef %93, i32 noundef %94, i32 noundef 6, i32 noundef 0)
  %96 = load i32, ptr %9, align 4
  %97 = add i32 %96, 6
  store i32 %97, ptr %9, align 4
  br label %98

98:                                               ; preds = %90, %85
  %99 = load i16, ptr %10, align 2
  %100 = zext i16 %99 to i32
  %101 = and i32 %100, 4
  %102 = icmp ne i32 %101, 0
  br i1 %102, label %103, label %111

103:                                              ; preds = %98
  %104 = load ptr, ptr %7, align 8
  %105 = load i32, ptr @hf_awdl_datastate_awdl_address, align 4
  %106 = load ptr, ptr %5, align 8
  %107 = load i32, ptr %9, align 4
  %108 = call ptr @proto_tree_add_item(ptr noundef %104, i32 noundef %105, ptr noundef %106, i32 noundef %107, i32 noundef 6, i32 noundef 0)
  %109 = load i32, ptr %9, align 4
  %110 = add i32 %109, 6
  store i32 %110, ptr %9, align 4
  br label %111

111:                                              ; preds = %103, %98
  %112 = load i16, ptr %10, align 2
  %113 = zext i16 %112 to i32
  %114 = and i32 %113, 16
  %115 = icmp ne i32 %114, 0
  br i1 %115, label %116, label %124

116:                                              ; preds = %111
  %117 = load ptr, ptr %7, align 8
  %118 = load i32, ptr @hf_awdl_datastate_umi, align 4
  %119 = load ptr, ptr %5, align 8
  %120 = load i32, ptr %9, align 4
  %121 = call ptr @proto_tree_add_item(ptr noundef %117, i32 noundef %118, ptr noundef %119, i32 noundef %120, i32 noundef 2, i32 noundef -2147483648)
  %122 = load i32, ptr %9, align 4
  %123 = add i32 %122, 2
  store i32 %123, ptr %9, align 4
  br label %124

124:                                              ; preds = %116, %111
  %125 = load i16, ptr %10, align 2
  %126 = zext i16 %125 to i32
  %127 = and i32 %126, 4096
  %128 = icmp ne i32 %127, 0
  br i1 %128, label %129, label %151

129:                                              ; preds = %124
  call void @llvm.lifetime.start.p0(i64 2, ptr %12) #6
  %130 = load ptr, ptr %5, align 8
  %131 = load i32, ptr %9, align 4
  %132 = call zeroext i16 @tvb_get_uint16(ptr noundef %130, i32 noundef %131, i32 noundef -2147483648)
  store i16 %132, ptr %12, align 2
  %133 = load ptr, ptr %7, align 8
  %134 = load i32, ptr @hf_awdl_datastate_umioptions_length, align 4
  %135 = load ptr, ptr %5, align 8
  %136 = load i32, ptr %9, align 4
  %137 = call ptr @proto_tree_add_item(ptr noundef %133, i32 noundef %134, ptr noundef %135, i32 noundef %136, i32 noundef 2, i32 noundef -2147483648)
  %138 = load i32, ptr %9, align 4
  %139 = add i32 %138, 2
  store i32 %139, ptr %9, align 4
  %140 = load ptr, ptr %7, align 8
  %141 = load i32, ptr @hf_awdl_datastate_umioptions, align 4
  %142 = load ptr, ptr %5, align 8
  %143 = load i32, ptr %9, align 4
  %144 = load i16, ptr %12, align 2
  %145 = zext i16 %144 to i32
  %146 = call ptr @proto_tree_add_item(ptr noundef %140, i32 noundef %141, ptr noundef %142, i32 noundef %143, i32 noundef %145, i32 noundef 0)
  %147 = load i16, ptr %12, align 2
  %148 = zext i16 %147 to i32
  %149 = load i32, ptr %9, align 4
  %150 = add i32 %149, %148
  store i32 %150, ptr %9, align 4
  call void @llvm.lifetime.end.p0(i64 2, ptr %12) #6
  br label %151

151:                                              ; preds = %129, %124
  %152 = load i16, ptr %10, align 2
  %153 = zext i16 %152 to i32
  %154 = and i32 %153, 32768
  %155 = icmp ne i32 %154, 0
  br i1 %155, label %156, label %221

156:                                              ; preds = %151
  call void @llvm.lifetime.start.p0(i64 2, ptr %13) #6
  %157 = load ptr, ptr %5, align 8
  %158 = load i32, ptr %9, align 4
  %159 = call zeroext i16 @tvb_get_uint16(ptr noundef %157, i32 noundef %158, i32 noundef -2147483648)
  store i16 %159, ptr %13, align 2
  %160 = load ptr, ptr %7, align 8
  %161 = load ptr, ptr %5, align 8
  %162 = load i32, ptr %9, align 4
  %163 = load i32, ptr @hf_awdl_datastate_extflags, align 4
  %164 = load i32, ptr @ett_awdl_datastate_extflags, align 4
  %165 = call ptr @proto_tree_add_bitmask(ptr noundef %160, ptr noundef %161, i32 noundef %162, i32 noundef %163, i32 noundef %164, ptr noundef @awdl_tag_datapath_state.extflags_fields, i32 noundef -2147483648)
  %166 = load i32, ptr %9, align 4
  %167 = add i32 %166, 2
  store i32 %167, ptr %9, align 4
  %168 = load i16, ptr %13, align 2
  %169 = zext i16 %168 to i32
  %170 = and i32 %169, 1
  %171 = icmp ne i32 %170, 0
  br i1 %171, label %172, label %180

172:                                              ; preds = %156
  %173 = load ptr, ptr %7, align 8
  %174 = load i32, ptr @hf_awdl_datastate_logtrigger, align 4
  %175 = load ptr, ptr %5, align 8
  %176 = load i32, ptr %9, align 4
  %177 = call ptr @proto_tree_add_item(ptr noundef %173, i32 noundef %174, ptr noundef %175, i32 noundef %176, i32 noundef 2, i32 noundef -2147483648)
  %178 = load i32, ptr %9, align 4
  %179 = add i32 %178, 2
  store i32 %179, ptr %9, align 4
  br label %180

180:                                              ; preds = %172, %156
  %181 = load i16, ptr %13, align 2
  %182 = zext i16 %181 to i32
  %183 = and i32 %182, 4
  %184 = icmp ne i32 %183, 0
  br i1 %184, label %185, label %193

185:                                              ; preds = %180
  %186 = load ptr, ptr %7, align 8
  %187 = load i32, ptr @hf_awdl_datastate_rlfc, align 4
  %188 = load ptr, ptr %5, align 8
  %189 = load i32, ptr %9, align 4
  %190 = call ptr @proto_tree_add_item(ptr noundef %186, i32 noundef %187, ptr noundef %188, i32 noundef %189, i32 noundef 4, i32 noundef -2147483648)
  %191 = load i32, ptr %9, align 4
  %192 = add i32 %191, 4
  store i32 %192, ptr %9, align 4
  br label %193

193:                                              ; preds = %185, %180
  %194 = load i16, ptr %13, align 2
  %195 = zext i16 %194 to i32
  %196 = and i32 %195, 64
  %197 = icmp ne i32 %196, 0
  br i1 %197, label %198, label %220

198:                                              ; preds = %193
  %199 = load ptr, ptr %7, align 8
  %200 = load i32, ptr @hf_awdl_datastate_active_time, align 4
  %201 = load ptr, ptr %5, align 8
  %202 = load i32, ptr %9, align 4
  %203 = call ptr @proto_tree_add_item(ptr noundef %199, i32 noundef %200, ptr noundef %201, i32 noundef %202, i32 noundef 4, i32 noundef -2147483648)
  %204 = load i32, ptr %9, align 4
  %205 = add i32 %204, 4
  store i32 %205, ptr %9, align 4
  %206 = load ptr, ptr %7, align 8
  %207 = load i32, ptr @hf_awdl_datastate_aw_sequence_counter, align 4
  %208 = load ptr, ptr %5, align 8
  %209 = load i32, ptr %9, align 4
  %210 = call ptr @proto_tree_add_item(ptr noundef %206, i32 noundef %207, ptr noundef %208, i32 noundef %209, i32 noundef 4, i32 noundef -2147483648)
  %211 = load i32, ptr %9, align 4
  %212 = add i32 %211, 4
  store i32 %212, ptr %9, align 4
  %213 = load ptr, ptr %7, align 8
  %214 = load i32, ptr @hf_awdl_datastate_update_counter, align 4
  %215 = load ptr, ptr %5, align 8
  %216 = load i32, ptr %9, align 4
  %217 = call ptr @proto_tree_add_item(ptr noundef %213, i32 noundef %214, ptr noundef %215, i32 noundef %216, i32 noundef 4, i32 noundef -2147483648)
  %218 = load i32, ptr %9, align 4
  %219 = add i32 %218, 4
  store i32 %219, ptr %9, align 4
  br label %220

220:                                              ; preds = %198, %193
  call void @llvm.lifetime.end.p0(i64 2, ptr %13) #6
  br label %221

221:                                              ; preds = %220, %151
  %222 = load i32, ptr %9, align 4
  call void @llvm.lifetime.end.p0(i64 2, ptr %10) #6
  call void @llvm.lifetime.end.p0(i64 4, ptr %9) #6
  ret i32 %222
}