; Function Attrs: null_pointer_is_valid sspstrong uwtable
define internal range(i32 2, 65587) i32 @awdl_tag_datapath_state(ptr noundef %0, ptr readnone captures(none) %1, ptr noundef %2, ptr readnone captures(none) %3) #0 {
  %5 = tail call zeroext i16 @tvb_get_uint16(ptr noundef %0, i32 noundef 0, i32 noundef -2147483648)
  %6 = load i32, ptr @hf_awdl_datastate_flags, align 4
  %7 = load i32, ptr @ett_awdl_datastate_flags, align 4
  %8 = tail call ptr @proto_tree_add_bitmask(ptr noundef %2, ptr noundef %0, i32 noundef 0, i32 noundef %6, i32 noundef %7, ptr noundef nonnull @awdl_tag_datapath_state.flags_fields, i32 noundef -2147483648)
  %9 = zext i16 %5 to i32
  %10 = and i32 %9, 256
  %.not = icmp eq i32 %10, 0
  br i1 %.not, label %14, label %11

11:                                               ; preds = %4
  %12 = load i32, ptr @hf_awdl_datastate_countrycode, align 4
  %13 = tail call ptr @proto_tree_add_item(ptr noundef %2, i32 noundef %12, ptr noundef %0, i32 noundef 2, i32 noundef 3, i32 noundef 0)
  br label %14

14:                                               ; preds = %11, %4
  %.0 = phi i32 [ 5, %11 ], [ 2, %4 ]
  %15 = and i32 %9, 512
  %.not88 = icmp eq i32 %15, 0
  br i1 %.not88, label %28, label %16

16:                                               ; preds = %14
  %17 = tail call zeroext i16 @tvb_get_uint16(ptr noundef %0, i32 noundef %.0, i32 noundef -2147483648)
  %18 = and i16 %17, 1
  %.not89 = icmp eq i16 %18, 0
  br i1 %.not89, label %23, label %19

19:                                               ; preds = %16
  %20 = load i32, ptr @hf_awdl_datastate_social_channel_map, align 4
  %21 = load i32, ptr @ett_awdl_datastate_social_channel_map, align 4
  %22 = tail call ptr @proto_tree_add_bitmask(ptr noundef %2, ptr noundef %0, i32 noundef %.0, i32 noundef %20, i32 noundef %21, ptr noundef nonnull @awdl_tag_datapath_state.channel_map_fields, i32 noundef -2147483648)
  br label %26

23:                                               ; preds = %16
  %24 = load i32, ptr @hf_awdl_datastate_social_channel, align 4
  %25 = tail call ptr @proto_tree_add_item(ptr noundef %2, i32 noundef %24, ptr noundef %0, i32 noundef %.0, i32 noundef 2, i32 noundef -2147483648)
  br label %26

26:                                               ; preds = %23, %19
  %27 = add nuw nsw i32 %.0, 2
  br label %28

28:                                               ; preds = %26, %14
  %.1 = phi i32 [ %27, %26 ], [ %.0, %14 ]
  %29 = and i32 %9, 1
  %.not90 = icmp eq i32 %29, 0
  br i1 %.not90, label %37, label %30

30:                                               ; preds = %28
  %31 = load i32, ptr @hf_awdl_datastate_infra_bssid, align 4
  %32 = tail call ptr @proto_tree_add_item(ptr noundef %2, i32 noundef %31, ptr noundef %0, i32 noundef %.1, i32 noundef 6, i32 noundef 0)
  %33 = load i32, ptr @hf_awdl_datastate_infra_channel, align 4
  %34 = add nuw nsw i32 %.1, 6
  %35 = tail call ptr @proto_tree_add_item(ptr noundef %2, i32 noundef %33, ptr noundef %0, i32 noundef %34, i32 noundef 2, i32 noundef -2147483648)
  %36 = add nuw nsw i32 %.1, 8
  br label %37

37:                                               ; preds = %30, %28
  %.2 = phi i32 [ %36, %30 ], [ %.1, %28 ]
  %38 = and i32 %9, 2
  %.not91 = icmp eq i32 %38, 0
  br i1 %.not91, label %43, label %39

39:                                               ; preds = %37
  %40 = load i32, ptr @hf_awdl_datastate_infra_address, align 4
  %41 = tail call ptr @proto_tree_add_item(ptr noundef %2, i32 noundef %40, ptr noundef %0, i32 noundef %.2, i32 noundef 6, i32 noundef 0)
  %42 = add nuw nsw i32 %.2, 6
  br label %43

43:                                               ; preds = %39, %37
  %.3 = phi i32 [ %42, %39 ], [ %.2, %37 ]
  %44 = and i32 %9, 4
  %.not92 = icmp eq i32 %44, 0
  br i1 %.not92, label %49, label %45

45:                                               ; preds = %43
  %46 = load i32, ptr @hf_awdl_datastate_awdl_address, align 4
  %47 = tail call ptr @proto_tree_add_item(ptr noundef %2, i32 noundef %46, ptr noundef %0, i32 noundef %.3, i32 noundef 6, i32 noundef 0)
  %48 = add nuw nsw i32 %.3, 6
  br label %49

49:                                               ; preds = %45, %43
  %.4 = phi i32 [ %48, %45 ], [ %.3, %43 ]
  %50 = and i32 %9, 16
  %.not93 = icmp eq i32 %50, 0
  br i1 %.not93, label %55, label %51

51:                                               ; preds = %49
  %52 = load i32, ptr @hf_awdl_datastate_umi, align 4
  %53 = tail call ptr @proto_tree_add_item(ptr noundef %2, i32 noundef %52, ptr noundef %0, i32 noundef %.4, i32 noundef 2, i32 noundef -2147483648)
  %54 = add nuw nsw i32 %.4, 2
  br label %55

55:                                               ; preds = %51, %49
  %.5 = phi i32 [ %54, %51 ], [ %.4, %49 ]
  %56 = and i32 %9, 4096
  %.not94 = icmp eq i32 %56, 0
  br i1 %.not94, label %66, label %57

57:                                               ; preds = %55
  %58 = tail call zeroext i16 @tvb_get_uint16(ptr noundef %0, i32 noundef %.5, i32 noundef -2147483648)
  %59 = load i32, ptr @hf_awdl_datastate_umioptions_length, align 4
  %60 = tail call ptr @proto_tree_add_item(ptr noundef %2, i32 noundef %59, ptr noundef %0, i32 noundef %.5, i32 noundef 2, i32 noundef -2147483648)
  %61 = add nuw nsw i32 %.5, 2
  %62 = load i32, ptr @hf_awdl_datastate_umioptions, align 4
  %63 = zext i16 %58 to i32
  %64 = tail call ptr @proto_tree_add_item(ptr noundef %2, i32 noundef %62, ptr noundef %0, i32 noundef %61, i32 noundef %63, i32 noundef 0)
  %65 = add nuw nsw i32 %61, %63
  br label %66

66:                                               ; preds = %57, %55
  %.6 = phi i32 [ %65, %57 ], [ %.5, %55 ]
  %.not95 = icmp sgt i16 %5, -1
  br i1 %.not95, label %97, label %67

67:                                               ; preds = %66
  %68 = tail call zeroext i16 @tvb_get_uint16(ptr noundef %0, i32 noundef %.6, i32 noundef -2147483648)
  %69 = load i32, ptr @hf_awdl_datastate_extflags, align 4
  %70 = load i32, ptr @ett_awdl_datastate_extflags, align 4
  %71 = tail call ptr @proto_tree_add_bitmask(ptr noundef %2, ptr noundef %0, i32 noundef %.6, i32 noundef %69, i32 noundef %70, ptr noundef nonnull @awdl_tag_datapath_state.extflags_fields, i32 noundef -2147483648)
  %72 = add nuw nsw i32 %.6, 2
  %73 = zext i16 %68 to i32
  %74 = and i32 %73, 1
  %.not96 = icmp eq i32 %74, 0
  br i1 %.not96, label %79, label %75

75:                                               ; preds = %67
  %76 = load i32, ptr @hf_awdl_datastate_logtrigger, align 4
  %77 = tail call ptr @proto_tree_add_item(ptr noundef %2, i32 noundef %76, ptr noundef %0, i32 noundef %72, i32 noundef 2, i32 noundef -2147483648)
  %78 = add nuw nsw i32 %.6, 4
  br label %79

79:                                               ; preds = %75, %67
  %.8 = phi i32 [ %78, %75 ], [ %72, %67 ]
  %80 = and i32 %73, 4
  %.not97 = icmp eq i32 %80, 0
  br i1 %.not97, label %85, label %81

81:                                               ; preds = %79
  %82 = load i32, ptr @hf_awdl_datastate_rlfc, align 4
  %83 = tail call ptr @proto_tree_add_item(ptr noundef %2, i32 noundef %82, ptr noundef %0, i32 noundef %.8, i32 noundef 4, i32 noundef -2147483648)
  %84 = add nuw nsw i32 %.8, 4
  br label %85

85:                                               ; preds = %81, %79
  %.9 = phi i32 [ %84, %81 ], [ %.8, %79 ]
  %86 = and i32 %73, 64
  %.not98 = icmp eq i32 %86, 0
  br i1 %.not98, label %97, label %87

87:                                               ; preds = %85
  %88 = load i32, ptr @hf_awdl_datastate_active_time, align 4
  %89 = tail call ptr @proto_tree_add_item(ptr noundef %2, i32 noundef %88, ptr noundef %0, i32 noundef %.9, i32 noundef 4, i32 noundef -2147483648)
  %90 = add nuw nsw i32 %.9, 4
  %91 = load i32, ptr @hf_awdl_datastate_aw_sequence_counter, align 4
  %92 = tail call ptr @proto_tree_add_item(ptr noundef %2, i32 noundef %91, ptr noundef %0, i32 noundef %90, i32 noundef 4, i32 noundef -2147483648)
  %93 = add nuw nsw i32 %.9, 8
  %94 = load i32, ptr @hf_awdl_datastate_update_counter, align 4
  %95 = tail call ptr @proto_tree_add_item(ptr noundef %2, i32 noundef %94, ptr noundef %0, i32 noundef %93, i32 noundef 4, i32 noundef -2147483648)
  %96 = add nuw nsw i32 %.9, 12
  br label %97

97:                                               ; preds = %85, %87, %66
  %.7 = phi i32 [ %.6, %66 ], [ %96, %87 ], [ %.9, %85 ]
  ret i32 %.7
}